target datalayout = "e-m:e-p270:32:32-p271:32:32-p272:64:64-i64:64-i128:128-f80:128-n8:16:32:64-S128"
target triple = "x86_64-pc-linux-gnu"

%struct.lxb_html_tokenizer = type { ptr, ptr, ptr, ptr, ptr, ptr, ptr, ptr, ptr, ptr, ptr, ptr, ptr, ptr, ptr, i64, ptr, ptr, ptr, ptr, ptr, i64, i64, ptr, ptr, i64, i64, i32, i32, i8, i32, i32, i8, ptr, i64 }

; Function Attrs: nounwind uwtable
define internal ptr @lxb_html_tokenizer_state_comment_less_than_sign_bang_dash_dash(ptr noundef %0, ptr noundef %1, ptr noundef %2) #0 {
  %4 = alloca ptr, align 8
  %5 = alloca ptr, align 8
  %6 = alloca ptr, align 8
  %7 = alloca ptr, align 8
  store ptr %0, ptr %5, align 8
  store ptr %1, ptr %6, align 8
  store ptr %2, ptr %7, align 8
  %8 = load ptr, ptr %6, align 8
  %9 = load i8, ptr %8, align 1
  %10 = zext i8 %9 to i32
  %11 = icmp eq i32 %10, 62
  br i1 %11, label %12, label %16

12:                                               ; preds = %3
  %13 = load ptr, ptr %5, align 8
  %14 = getelementptr inbounds %struct.lxb_html_tokenizer, ptr %13, i32 0, i32 0
  store ptr @lxb_html_tokenizer_state_comment_end, ptr %14, align 8
  %15 = load ptr, ptr %6, align 8
  store ptr %15, ptr %4, align 8
  br label %41

16:                                               ; preds = %3
  %17 = load ptr, ptr %6, align 8
  %18 = load i8, ptr %17, align 1
  %19 = zext i8 %18 to i32
  %20 = icmp eq i32 %19, 0
  br i1 %20, label %21, label %31

21:                                               ; preds = %16
  %22 = load ptr, ptr %5, align 8
  %23 = getelementptr inbounds %struct.lxb_html_tokenizer, ptr %22, i32 0, i32 32
  %24 = load i8, ptr %23, align 4
  %25 = trunc i8 %24 to i1
  br i1 %25, label %26, label %30

26:                                               ; preds = %21
  %27 = load ptr, ptr %5, align 8
  %28 = getelementptr inbounds %struct.lxb_html_tokenizer, ptr %27, i32 0, i32 0
  store ptr @lxb_html_tokenizer_state_comment_end, ptr %28, align 8
  %29 = load ptr, ptr %6, align 8
  store ptr %29, ptr %4, align 8
  br label %41

30:                                               ; preds = %21
  br label %31

31:                                               ; preds = %30, %16
  br label %32

32:                                               ; preds = %31
  %33 = load ptr, ptr %5, align 8
  %34 = getelementptr inbounds %struct.lxb_html_tokenizer, ptr %33, i32 0, i32 11
  %35 = load ptr, ptr %34, align 8
  %36 = load ptr, ptr %6, align 8
  %37 = call ptr @lxb_html_tokenizer_error_add(ptr noundef %35, ptr noundef %36, i32 noundef 34)
  %38 = load ptr, ptr %5, align 8
  %39 = getelementptr inbounds %struct.lxb_html_tokenizer, ptr %38, i32 0, i32 0
  store ptr @lxb_html_tokenizer_state_comment_end, ptr %39, align 8
  %40 = load ptr, ptr %6, align 8
  store ptr %40, ptr %4, align 8
  br label %41

41:                                               ; preds = %32, %26, %12
  %42 = load ptr, ptr %4, align 8
  ret ptr %42
}