; Function Attrs: nounwind uwtable
define internal noundef ptr @lxb_html_tokenizer_state_comment_less_than_sign_bang_dash_dash(ptr nocapture noundef %0, ptr noundef returned %1, ptr nocapture readnone %2) #0 {
  %4 = load i8, ptr %1, align 1
  switch i8 %4, label %9 [
    i8 62, label %13
    i8 0, label %5
  ]

5:                                                ; preds = %3
  %6 = getelementptr inbounds i8, ptr %0, i64 236
  %7 = load i8, ptr %6, align 4
  %8 = and i8 %7, 1
  %.not = icmp eq i8 %8, 0
  br i1 %.not, label %9, label %13

9:                                                ; preds = %3, %5
  %10 = getelementptr inbounds i8, ptr %0, i64 88
  %11 = load ptr, ptr %10, align 8
  %12 = tail call ptr @lxb_html_tokenizer_error_add(ptr noundef %11, ptr noundef nonnull %1, i32 noundef 34) #5
  br label %13

13:                                               ; preds = %5, %3, %9
  store ptr @lxb_html_tokenizer_state_comment_end, ptr %0, align 8
  ret ptr %1
}